(iAG
populacao
p1
(dp2
S'indiv'
p3
(lp4
(iAG
indviduo
p5
(dp6
S'aptidao'
p7
F2733.04
sS'codigo_genetico'
p8
S'1010011011010001111000100110110011000110000111100111111111100110011110001100011111010010110000001101100001111110110010111110011010011101000010100101010011000011011000001100011110111011011100001100000011100100010001001101010111110000000000001100110110001101100110101110110011111110111100110110110101001000011110100010000110110010000110011001111011111101100101011111101011000000011111110110110011110011111011111111001111110001'
p9
sba(iAG
indviduo
p10
(dp11
g7
F2730.93
sg8
S'1010111011010001111000100111000011000010010111101001110111111100111110011101001111011010110010011100000101111111110000111010011010111101100100100101000011101001011000011010011110100010011100011100101011100110010001001111010111111100000101101100110111000100110100111110110111111110111100110110110101001000011110100010000110110010000110011001111011111101100101111111101011000000011111110110110011110011111011111111001111110001'
p12
sba(iAG
indviduo
p13
(dp14
g7
F2718.06
sg8
S'1010011011010001111001100111000011000010000111101001111111111100111111011101001111001010110010011100000101111111110000111010011010111001100000100101010011101001011000011100011110101011010100001100100011100110010011101100010111111000000100101100110111001101110110111110110011111100011010111010011001101000011111110001100010110110010100001101100011110000100101011111101011100010011111100110000011111111111011001111111011010011'
p15
sba(iAG
indviduo
p16
(dp17
g7
F2717.0
sg8
S'1100010010111110111110000101000011000010000111001011011111001110011010001100011011010010111000011100100001011010110100111110011010011101000000110101010011001011011000011100011111111011011110001100011011100101011001001101010110111000000101101100110111001110111010011101011011100110111100110111110101001000011100000010010110110010000100011001110011111101100101011111101011100000011111100100010011111011111011111111011011110001'
p18
sba(iAG
indviduo
p19
(dp20
g7
F2701.17
sg8
S'1010101000110011101111011001000011010001000111101011111111101101011110001100001111011110111000001101101000111011110000011110010111111101110000100101010111000101110110001100011110001011011100001101101110010100011001111111110111110000000000101100110011001101110111111100110111111100011010111010001001001011011111110001001010111110010100101101100011110100100101010011101011110010010111000100010011111010111011111111011011101000'
p21
sba(iAG
indviduo
p22
(dp23
g7
F2700.53
sg8
S'1010100010110010101111111001000011000010000111100111111111101001011110001100000111011010111000001101101001111011110000011110010111111100111000100101010011001001010000011010011111101010011110001101100111100010010001001101010011110000000000001101110011001101110000001101010011111001111001010011000101001001011100011010000010110011001011001101111111011011101010101000101111100010011101110010011011111011111001101001100010110001'
p24
sba(iAG
indviduo
p25
(dp26
g7
F2700.53
sg8
S'1100000010101011110110010111000111000000000111100111111111110101011000111110000110110110001001110111111000100100100011101100011111101101101101011100111101000010110010001100011111000010000110001101000111100110010001001111111111110010000000100101010111001101110110001110110011111100011010111010111001101000011110101010000110110110001010011001111011011100100000011111101011100010011111100110110011111011111011111111001111110001'
p27
sba(iAG
indviduo
p28
(dp29
g7
F2700.32
sg8
S'1010101010110011101110010110010011000110000111100111101111100101011110001100011111010000100000001111000001111110110010111100001011011101000000100101010011000010011000001100011110101011101100011100100111000100010001001101010010110000000011101001010101100110111010011101011111001001111001010011000101001000011100011010000110110011001011001101111111011011101010101000101011100010011101100010000011111011111010011111000011110000'
p30
sba(iAG
indviduo
p31
(dp32
g7
F2695.26
sg8
S'1010011011010001111000100111000011000010010111101001111111111100111110011101001111011010110010011100000101111111110000111010011010111101100000100101000011101001011000011010011110100010011100011100101011100110010001001111010111111100000100101100110111000100110110111110110111111100011110111010001001101011011111110001001010111110010100101101100011110100100101010011111011110010010111000110000011111111111011001111111001010011'
p33
sba(iAG
indviduo
p34
(dp35
g7
F2689.13
sg8
S'1000000010101011110110010111000111000000000111100111111011110101011000111110000110110110001001110111111000100100100011101100011111101101100101011100111101000011110010001100011111000010000110001101000111100110010001001111111011110010000000100101010111001101110110001110110111111100011010111010111001100000011110101010000110110110001010011001111011011100100001011110111011010010110111110110001111111011111010001111000011110000'
p36
sba(iAG
indviduo
p37
(dp38
g7
F2686.6
sg8
S'1010011011010001111000100111000011000010000111101001111111111100111111011101001111001010110010011100000101111111110000111010011010111001100000100101010011101001011000011100011110101011011100001100100011100110010011101100010111111000000100101100110111001101110110111110110011111110011010111010011001101000011111110001100010110110010100001101100011110000100101011111101011100000011011100100010011111011111011111111011011110001'
p39
sba(iAG
indviduo
p40
(dp41
g7
F2686.39
sg8
S'1010011011010001111001100111101011000010000111101001110111111100011111011101001111011010110010011100000101111101100010111010011010111111110000100101010011000001011000011000011110101011101100011100100111000100010001001101010010110000000011101001010101100110111010011101011111101001111001010011000101001000011100011010000110110011001011001101111111011011101010101000101011100010011101100010010011111011111001101011100010100101'
p42
sba(iAG
indviduo
p43
(dp44
g7
F2684.91
sg8
S'1100000010101011110110010111000111000000000111100111111111110101011000111110000110110110001001110111111000100100100011101100011111101101101101011100111101000010110010001100010110100011000101111100100111100110010001001101010111111000000110101100110110001101100110111110110011111110111100110110110101001000011110100010000110110010000110011001011011111101100101011111101011000000011111110110110011111011111011111111001111110001'
p45
sba(iAG
indviduo
p46
(dp47
g7
F2683.01
sg8
S'1100011011101011110110100110010011000110000111110111011111001110011010001100011011010010111000011100100101011110110110111110011010001101000000110101010011000011011000011100001110111011011110001110011011100101011101001111010110100000000000101100110111000101101111111101011011100110111100110111110101001000011100000010010110110010000100011001110011111111100101011111101011100010011111100100011011111011111011111111011011110001'
p48
sba(iAG
indviduo
p49
(dp50
g7
F2681.32
sg8
S'1010011011010001111000100110010011000110000111100111111111100110011110001100010111010010110000111101100001111110111010111110011010011101000010101101010011000011011000001100011110110011011100001100000011100100010001001101010111110000000000001100110110001101100110111110110011111110111100110110110101001000011111100010000110110010000110011000100011011100100101001110101011110010101110100010100011111011011010101111111011110111'
p51
sba(iAG
indviduo
p52
(dp53
g7
F2678.37
sg8
S'1010011011010001111000100110010011000110000111100111111111100110011110001100011111010010110000001101100001111110110010111110011010011101000010100101010011000011011000001100011110111011011100001100000011100100010001001101010111110000000000001100110111001111111001011101010001101001111000000011010101001000011100011000010110110010001010011001111011101100100001011110001011101010010111110110000011111011111010101111100011111101'
p54
sba(iAG
indviduo
p55
(dp56
g7
F2675.62
sg8
S'1100010010101001110110010111000111000110000101100111111101100101011010001100011111011010010001001101100001111111110100011100011110111101100000101101110011000010011000001100010111101011001100011100100111100110010001001101010110111000000101101100010111001101110100001110110011111100011010111010111001101000011110101010000110110110001010011001111011011100100000011111101011100010011111100110110011111011111011111111001111110001'
p57
sba(iAG
indviduo
p58
(dp59
g7
F2673.93
sg8
S'1010011011010001111000100110110011000110000111100111111111100110011110001100011111010010110000001101100001111110110010111110011010011101000010100100110011000011011000001100011110111011011100001100011011100101011001001101010110111000000101101100110111001110111010011101011011100110111100110111110101001000011100000010010110110010000100011001110011111101100101011111101011100000011111100100010011111011111011101111001111110011'
p60
sba(iAG
indviduo
p61
(dp62
g7
F2672.24
sg8
S'1100010010111110110110000101000011001000000111001011011111001110011010001100011011000010111001011100100001011010111100111110011010011101000000110101010011001011011000011100011111111011011110001100000011100100010001001101010111100000000000001100110110001101100110101110110011111110111100110110110101001000011110100010000110110010000110011001111011111101100100011111101011000000011111110110110011110011111011111111011011111001'
p63
sba(iAG
indviduo
p64
(dp65
g7
F2671.19
sg8
S'1011010011010001111000100110010011000110000111110110111111100110011010001100011111010010110000001100100001111110110000111110011011011101000010100101010011000001011000001100011110111011011110001100000011100100010001001101010111110000000000001100110110001101100110101110100011011110111100110110110101000000011110100010000110110011000110011001111011111101100101011111101011000000011111110110110011110011111011111111001111110001'
p66
sba(iAG
indviduo
p67
(dp68
g7
F2669.92
sg8
S'1100011011101011110110110110010011000110000111110111011111001110011010001100011011010010111000011100100101011110110110111110011010001101000000110101010011000011011000011100001110111011011110101110011011100101011101011111010111011000000101101100110111001110111010011111011111100001111001010011000101001000011100011010000110110011001011001101111111010001101010101000111011100010011101100010010111111010111001101001100010100101'
p69
sba(iAG
indviduo
p70
(dp71
g7
F2669.5
sg8
S'1010011011010001111010100111000011000010010111101001111111111100111110011101001111011000110010011110000101111111110000111010001010111101100000100101000011101001010000011010010110100010011100011100101011100110010001001111010111011100000100101100110111000100110110111110110111111101011110111010001001101011011111110001001010111110010100101101100011110100100101011111101011100010011111100100010011111011111011111111011011110001'
p72
sba(iAG
indviduo
p73
(dp74
g7
F2668.23
sg8
S'1010011011101011110110100110010011000110000111110111011111001110011010011100011011010010111000011100100001011110110110111110011010011101000000110101010011100011011010011100011110111011011110001100011011100101011001001101010111110000000000001100110111001111111001011101010001101001111000000011010101001000011100011000010110110010001010001001111011101100100001011100001011101010011111110110000011111011111010101111100011111101'
p75
sba(iAG
indviduo
p76
(dp77
g7
F2667.6
sg8
S'1100011011101011110110010111000111000010000111100111111111100001011011001100010111001010110000001101000001111111110000101110010110111100110000100100110011000001010010011010011111000010000110001101000111010110010001001111110011110010000000100101010111001101110110111110110011111100011010111010001001101001011111110001000010111111010100101101101011111100100111110011111011100010011101100010000011111011111011101111011010110000'
p78
sba(iAG
indviduo
p79
(dp80
g7
F2664.22
sg8
S'1100011011101011110110100110010011000110000111110111011111001110011010001100011011010010111000011100100101011110110110111110011010001101000000110101010011100011011010011100011110111011011110001100011011100101011001001101010111110000000000001100110011001110111001011101010001101001111000000011010101001000011100011000010110110010001010001001111011101100100101011111101011100010011111100100011011111011111011111111011011110001'
p81
sba(iAG
indviduo
p82
(dp83
g7
F2664.01
sg8
S'1100010010101111100110010100010011000110000111100111111111100101011110101110011111010010110000001101110001111110111000111110011010011101100000100101010011000011011000001100011110101010010110011100000011100000010001001101010111110000000000101100110111000101101110111101011011101001111101000011010001001000011000011010000110110010001110011001111011111101100101011111101011100010011111100100000011111011111011101111011011110000'
p84
sba(iAG
indviduo
p85
(dp86
g7
F2662.74
sg8
S'1010011011010001111000100111000011000010010111101000111111111110111110001100111111010010110000011100100001011110110110111111011110011101000000110101110011000011011000011100011110111111011100001100111011100101011001001101010111110000000010001100110111001101110000001101010011111001011110111010001001101011011111110001001010111110010100101101100011110100100101110011111011110010010111000100000011111111111011001111111001011011'
p87
sba(iAG
indviduo
p88
(dp89
g7
F2662.53
sg8
S'1100010010111110110110010101000011000010000011001001111011111100011111011101001111011010110010011100000101111101100010111010011010111111110000100101010011000001011000011000011110101011101100011100100111000000010001001101010010110000000011001001010101100110111010011100010011111100011010111001011001101000011111110001100010110110010100001101100011110000100101011101101011100010011111100100010011111011111011111111011011110001'
p90
sba(iAG
indviduo
p91
(dp92
g7
F2662.11
sg8
S'1010011011010001111000100110010011000110000111100111111111100110011010001100011111010010110000001100100001111110110010111110011010011101000010100101010011000011011000001100011110111011011110001100000011100100010001001101010111110000000000001100110111001101110000001101010011111001111000000011010001001000011100011010010110110010001010111001111011111100100101011111101011111010010111100110000011111111111011001111111011010011'
p93
sba(iAG
indviduo
p94
(dp95
g7
F2660.0
sg8
S'1100010010111110111110000101000011000010000111001001111111100101011110101110011111010010110000001101110001111110111000111110011010011101100000100101010011000011011000001100011110101010010110011100000011100000010001001111010110110000000000101100110111000101101111111101011011100110111100110111110101001000011100000010010110110010000100011001110011111111100101011111101011100010011111100100011011111011111011111111011011110001'
p96
sba(iAG
indviduo
p97
(dp98
g7
F2658.31
sg8
S'1010100010110011101111111001000011000010000111100111111111100101011011001100011111001010110000001101000001111111110000101110010110111100110000100100110011001001010010011010011111000010000110001101000111100110010001001111110011110010000000100101010111001101110110001110110011111100011010111010111001101000011110101010000110110110001010011001111011011100100001011110111011011010110111010110001011111011111010001111000011110000'
p99
sba(iAG
indviduo
p100
(dp101
g7
F2655.99
sg8
S'1100011011101011110110010111000111001010000111100111111111100001011011001100110111001010110000001101000001111111101000101110010110111100110000100100110011000001010010011010011111000010000110001101000111010110010001001111110011110000000000100111010111001101110110111110110011111100011010111010001001101001011111110001000010111111010100101101001011111100100111111111101011100000011111100110010011111011111011111111011111110001'
p102
sba(iAG
indviduo
p103
(dp104
g7
F2652.61
sg8
S'1010011011010001111001100111000011000010010111101001111111111100111111011100001111001010110010011100000101111111110000111010011010111001100010100101010011101001011000011000011110101011010100001100000111100110010001101111110011110010000000100101010111001101110110001110110011111100011010111010111001101000011110101010000110110110001010011001111011011100100001011110111011011010110111010110001011111011111010001111111011010011'
p105
sba(iAG
indviduo
p106
(dp107
g7
F2652.61
sg8
S'1010011011010001111001100111101011000010000111101001110111111100011111011100001111011010110010011100000001111101100010111010011010111111110001100101010011000001011000011000011110101111101100011100100011000100010001001101010010110000000011101001010101100101110110111110010011111100011010111010001001101001011111110001000010111110010100101101100011111100100111110011111011100010011101100010000011111011111011101111011010110000'
p108
sba(iAG
indviduo
p109
(dp110
g7
F2652.61
sg8
S'1010011011010001111000100110010011000110000111100111011111100110011010001100011111010010110000001100100001111110110010111110011010011101000010100101010011000011011001101100011110111001011110001100000011100100010101001101010111110000000000001100110111001101110001001101010011111001111000000011010001001000011100011010010110110010001010011000111011110101110101011111101011110010010111100100000011111011111011101111001111111000'
p111
sba(iAG
indviduo
p112
(dp113
g7
F2650.92
sg8
S'1100011011101011110110100110010011000110000111110111011111001110011010001100011011010010111000011100100001011110110110111110011010011101000000110101010011000011011000011100011110111011011110001100011011100101011001001101010111011000000101101100110111001110111010011111011111100001111001010011000101001000011100011010000110110011001011001101111111010011101010101000101011100010011101100010010011111011111001101001100010100101'
p114
sba(iAG
indviduo
p115
(dp116
g7
F2650.71
sg8
S'1100010010111110111110010101001011000010000111001001110011000100011111011100001110111010110000001100100001111110110010111110011010011101000010100101010010000011011000001100011110111011011110001100000011100100010001001101010111110000000000001100110011001101110000001101010011111001111001010011000101001000011100011010000010110011001011001101111111011011101010101000101111100010011101110010011011111011111001101001100010100101'
p117
sba(iAG
indviduo
p118
(dp119
g7
F2650.08
sg8
S'1100010010101111100110011111010110000010010111100111111111100101011011001100011111111010111000001100100001111111110000101110010110111100110000100100110011001001010010011010011111000010001110001101000111100010010001001111110011110010000000100101011011101101110101011100101011100110111100110111110101001000011100000010010110110010001110011001111011111001100101011111101011100011011111100100000011111111111011001111111010010011'
p120
sba(iAG
indviduo
p121
(dp122
g7
F2649.87
sg8
S'1010011011010001111000100110010011000110000111100111111111100100011110001100011111010010110000001101100001111110110010111110011010011101000010100101010011000011011000001100011110111011111100001100000011100100010001001101010111110000000000001100110111001101110001001101011011100110111100100111011101001000011100000010010110110010000100011001110011111111100101011011101011100000011111100100010011110011111011111111011011110001'
p123
sba(iAG
indviduo
p124
(dp125
g7
F2649.66
sg8
S'1000010001100001111001110111101011000010000111101001110111111100011111011100001111011010110010011110000001111101100010111010010010111111110001100101010011000001011000011010011110101111101100011100100011000100010001001101010011110010000000101101110111001101110111011110010111110110111100110111110101001000011100000010000110010000001110011001111011111101100101011111101011100000011111100110010011111011111011111111111111110001'
p126
sba(iAG
indviduo
p127
(dp128
g7
F2649.66
sg8
S'1010100010100011101111111001000011000110000111100111111101100101011010001100011111011010010001001101100001111111110100011100011110111101100000101101110011000011011000001100010111101011001100011101100111100110010001001101010110111000000101101100110111001101110110001110110011111100011010111010111001101000011110101010000110110110001010011001111011011100100001011110111011011010110111010110001011111011111010001111000011110000'
p129
sba(iAG
indviduo
p130
(dp131
g7
F2647.12
sg8
S'1100010010111110111110010101101011000010000011001001111011111100011111011101001111010010111010011100000101111101100010111010011010111111110000100101010011000001011000011000011110101011101100011100100111000000010001001101010010110000000011001001010101100110111010011100010011111100011010111000011001101000011111110001100010110110010100001001111011011100100000011111101011000000011111010110110011111011111011111111001111110001'
p132
sba(iAG
indviduo
p133
(dp134
g7
F2646.91
sg8
S'1000010001101011100101011110010101001010001001000110011110011111000100111110000011100110011010001111000011110011011100110010000001000011110110001010110111001101110110001100011110001011011100001101100110010100010001111111110011110010000000101101110111001101110111011110010111100110111100110111110101001000011100000010000110110000001110011001111011111101100101011111101011100000011111100110010011111011111011111111011111110001'
p135
sba(iAG
indviduo
p136
(dp137
g7
F2645.43
sg8
S'1011111000110011100111111001000011010001000111101011111111101101011110001100000111011110111000001001101001111011110000011110010111111001110000100101010111000101110110001100011110001011011100001101100111010100011001101111110011110010000000101001110010100101110100101110110011101100000000101000101001001100111101101001000010000110010101011100100011101100100101001110101011110010101110100010100011111011011010101111111011110111'
p138
sba(iAG
indviduo
p139
(dp140
g7
F2645.01
sg8
S'1100010010111110111110010101001011000010000111001001110011000100011111011100001110111010110000001100100001111110110010111110011010011101000010100101010010000011011000001100011110111011011110001100000011100100010001001101010111110000000000001100110111001101110000001101010011111001111000000011010001001001011100011010000110110110001010011001111011110101100101011111101011100010001111100110010011111011111011111110011011110001'
p141
sba(iAG
indviduo
p142
(dp143
g7
F2644.17
sg8
S'1010101000110011101111111001000011010000000111101011111111101101011110001100001111011110111000001101101001111011110000011110010111111101110000100101010111000101110110001100011110001011011100001101100110010100011001111111110111110000000000101100110111001101110100101110110011101100000000101001101001001001111100101001010010000110010001001100111111111001110101011011101011100010011111110100000011111011111010101111011011111000'
p144
sba(iAG
indviduo
p145
(dp146
g7
F2642.69
sg8
S'1010101000110011101111111001000011010000000111101011111111101101011110001100001111011110111000001101101001111011110000011110010111111101110000100101010111000101110110001100011110001011011100001101100110010100011001111111110011110010000000101101110111001101110111011110010111100110111100110111110101011000011100000010000110110000001110011001111011111101100101011100111011110010011101100010000011111011111011101111001111110001'
p147
sba(iAG
indviduo
p148
(dp149
g7
F2642.48
sg8
S'1100010010111110111110010101001011001010000111001001100011000100011111011100001110111010010000001100100001111110110010111110011010011101000010100101010010000011011000001100011110111011011110001100000011100100010001001101010111110000000000001101000111001101110110001110110011111100011010111010111001101000011111101010000110110110001010011001111011011100100000011111101011000000011111010110110011111011111011111111001111110001'
p150
sba(iAG
indviduo
p151
(dp152
g7
F2640.16
sg8
S'1010100010110010111111111001000011000010000111100111111111101001011110001100000111011010111000001101101001111011110000111110010111111100111000100101010011001001010000011010011111101010001110001101100111100010010101001111010011110010001000100101110111001101110110001110110111111100011010111010111001101000011110101010000110110110001010011001111011011100100001011110111011011010110111010110001111111011111010001111000011110000'
p153
sba(iAG
indviduo
p154
(dp155
g7
F2640.16
sg8
S'1010011011010001111000100110010011000110000111100111111111100110011110001100011111010010110000001100100001111110110010111110011011011101000010100101010011000011011001111100011110111000011110001100000011100100010101001101010111110000000000001100110111001001110001001101010011111001111000000011010001001000011100011010010110110010000000011001111011101100100001011110001011101010010111110100000011111001111011101111100011111101'
p156
sbasS'metodo_de_selecao'
p157
I0
sS'taxa_de_reproducao'
p158
F0.95
sS'taxa_de_mutacao'
p159
F0.02
sS'numero_genes_por_cromossomo'
p160
I8
sS'tamanho'
p161
I50
sS'numero_de_cromossomos'
p162
I53
sS'funcao_aptidao'
p163
c__main__
valor
p164
sb.