(iAG
populacao
p1
(dp2
S'indiv'
p3
(lp4
(iAG
indviduo
p5
(dp6
S'aptidao'
p7
F8568.571867761864
sS'codigo_genetico'
p8
S'0011000010001100100111111011010001001010010011010011011000101010100111001110100011011101010100111101000111101001001100011111000101001110101101000100001011011110011100001100110011010000101010111101110111100001010010001110000111010011011001011111001101111110101011111110111101110110001110000110101011101010111011000110101111110001011011100011111011100110101111100000010101011110110111001100010101011110010011001010100000110001'
p9
sba(iAG
indviduo
p10
(dp11
g7
F8500.511161747865
sg8
S'1011001100101001010011010110111100000001000110111001011010101010100011001110100011001001100100000101111111011011011111111110110111111010001100001101001011010100001100011100110011100011111010110111011000110110101101111000011111110001110111100101110111100111011000111010011111011011010001110110111011101110111001001110001011110011001111110011110111110100101100100100111110010010011101001101000011001110011011101100001110001001'
p12
sbag10
a(iAG
indviduo
p13
(dp14
g7
F8476.370691693468
sg8
S'1111110110000110000111111011010011000100110110011001011001101010101011001010100011001101111100100100111011001000011110101110110111110010101101001111101011000100001111011100110001101010100000010111011000010110101101111000001101000011011001001111001111111101011001001011010111111100001001110010001011101110111011001110001111110000100011101010111111110110101100110110000011001100110110010100010110001111111001001100101100111101'
p15
sba(iAG
indviduo
p16
(dp17
g7
F8455.264972725572
sg8
S'1111000010001100100111111011010001001110110010011011011000111110110111001110100001011101010100111101010111001000101100001110000101011110101101000100001101001010110111011101010011111010101110110101110001111101010110001111100111110110110000001010100101110101010101110111110101111011111111110000101111001011111011110110101111110000000010111010101111010010110100100111010011001110101010010000000110001010001011001110101100111001'
p18
sba(iAG
indviduo
p19
(dp20
g7
F8430.103974151209
sg8
S'1111010011101011010111010100111110001010010011011001011000111010000011001110100001011101110100101100111001001000100100110110001010000000101111001001001111000101110111011101110100001001101010110101010110100101010010001110100110110110110000001011100111110110111000010011111110011011011110100100111011101111110011001110101111110000101001111111101101110010110100100110010011001100110100110111010111011110010010100110101000111101'
p21
sba(iAG
indviduo
p22
(dp23
g7
F8386.175523025977
sg8
S'0111010011101011010011010110111110001010010011011011011000111010000011001110100001011101110100101100111001001001000100110110001010000000101111001001011111000101110111011101110100001000101010110101010110100101010010001100111111110001110011101011110111110101010010111010011101110100001111100010101011101011111001000110101111111001001011101011111111110111101100000111010011000010100100000001101100001110111011011100100111101010'
p24
sba(iAG
indviduo
p25
(dp26
g7
F8383.560186042681
sg8
S'0111010011101011010011010110111110001010010011011011011000111010000011001110100001011101110100101100111001001001000100110110001010000000101111001001011111000111110111011101110100001001111010101111000101110101000110110100011011110001110011100011100110100101010110110010011101110100101110100010101011110011111011000110101111110000101001111111101011110000110110100110010011001001100100010001000110001110111011011100100111101010'
p27
sba(iAG
indviduo
p28
(dp29
g7
F8304.414134844194
sg8
S'1111010010101011010011010100110101001010010011011011011000101000101000001001001010011110110000000011000110111011100101010101100111000100110110001011001111101101010001010101110001100011111000110111000111110000010010100110000111111001110001101011001100101110110001111001111111110001101111000110101011001011011011001110101110110000101001111011101101110011110100000111010111001010101100010001100110001110100010001111101111110000'
p30
sba(iAG
indviduo
p31
(dp32
g7
F8280.25413178847
sg8
S'0011001010010000110111111111010000100110000111011101011110011010100011000110100011001101010101111101001101100000110100110111101011010010101111000001111110010100011111011100111001100011111010110111111000110110101100110100011111110001110011100011100111110101010010111010011100110100101111100010101011111111111011001110101011111001001011101001111111110110101100100100110000010010111101001101010111101111101001001100000110101001'
p33
sbag31
ag31
ag31
a(iAG
indviduo
p34
(dp35
g7
F8256.089646618426
sg8
S'1111011011101011010011010100111110001010010011011011011000111010000011001010100001011101110100001100111001001000100100110110011010000000101111001001001111000101110111011101100100001001101010110101010110100101010010001110100101110110110000001011100111110100111000010011111100010011011110110100111011111011100011001110101111110000101001111011101111110010110100100110010011001100110100110011010111001110010010100110101000111101'
p36
sba(iAG
indviduo
p37
(dp38
g7
F8148.738369404187
sg8
S'0101010010001000110111011010010010001010010011011001011000101000100011000110100000001001110100100100111001001000011110101110110111110010101101001111001011000100001101011100110001101010100000010111011000010110101101111000001111110001110011100010100000111101111101101001111101110011001101100010101011011101111011100110101110110000010010111010101111010001111100100100111110010010110101001101011101001110101010001110101111110000'
p39
sba(iAG
indviduo
p40
(dp41
g7
F8113.035695533455
sg8
S'0111010010001000110111111010010010001010010011011001011000101010100011000110100000001001110100100100111001001000011110101110110111110010101101001111001011000100001101011100110001101010100000010111011000010110101101111000001111110001110011100010100000110001010001001010111101010100001111100110111011100011111001000111101011111001001011111011111111110110101100100100110000010010111101001101010111000110101010001111101111111000'
p42
sbag40
a(iAG
indviduo
p43
(dp44
g7
F8088.866067070217
sg8
S'1111010010001100100111111011010001001110010010011011011000111110110111001110100001011101010100111101010111001000101100001110000101011110101101000100001101001010110111011101010011111010101110110101110001111101010110001111100111110110110000001010100101110100111001010011111100011011011110100100101111101111110011001100101111110000101001111111101101110000110000100110110011000100100100010011010110001110001010011101100111111010'
p45
sba(iAG
indviduo
p46
(dp47
g7
F8085.921706954625
sg8
S'1011000010001100100111111011010001001010010011011011011001101010100111001110101000011010110011110011010111011010100111000011101110111001110000100001001010010100011101011100110111100011111010110111111100100110101101110000011111110001111000101111011111111100000001110111110101111011101111110010101011001001110011100110101110110000010010111000101111010001101100100100110110011100111011100101010111001010011011011111100000110001'
p48
sba(iAG
indviduo
p49
(dp50
g7
F8030.131910809434
sg8
S'1111000010001100100111011011010001000010010011011011011000101010100011010110101000011010110011110011010011011010100111000011101110111001110011101011111101011001111110111101100111011011001010101101000101110101010010111100111101010011010001101111001101111100010001101011110101011011011011100110100011101011100000001010111111111001001011101011011011100110100100100111010010101100110010011100010110001110010010100110100000111101'
p51
sbag49
a(iAG
indviduo
p52
(dp53
g7
F8028.726361322822
sg8
S'1111000010001100100111111011010001000110010011011011011000101010100011000110101000011010110011110011010111011010100111000011101110111001110000110001001010010100011101011100110111100011111010110110111100100110100101111000011111110001111001101111011111111100000001110111111101110100101111100010011011111011111011011110101100111000100010100010111111110110101100100111010010101100110010011100010110001110010010100110100000111101'
p54
sba(iAG
indviduo
p55
(dp56
g7
F8018.520053289135
sg8
S'1111000010001100000111111011010001001110110010011010001000111110110111001111100001011101010100111001010111001000101100001110000101011010101101000100101101001010110111011101010011101010101110110100110111111101010110001111100111110110110000000010100111110101010001110111110101111111111101010000101111001011111011001110101110110000010010001000101111010001111100100111000011001110101010010000000110001010001011101110100100110001'
p57
sbag55
a(iAG
indviduo
p58
(dp59
g7
F8003.684539573009
sg8
S'1111010010101011110011010100110101001010010011011011011000101000101000011001101010010110100110000011000110001000011110101110010001101011001111011011001010010100111000011110011011000001111010101111000101110101000110110100011011110001110011100011100110100101010010110010011101110100101110100010101011110011111011000110101111110000101001111111101011110010110110100110010011001001100100010001010110001110100010001111101111110000'
p60
sba(iAG
indviduo
p61
(dp62
g7
F7965.718400558734
sg8
S'1111111110000101111011000100011011000111100000111100000111100000100011001110110000011001110100110101010111001000101100001110000101011010101101000100001101001010110111011101010011111010101110110100110101111101010110001111100111110110110000000010100111110101010001110111110101111011111101010000101111001011111011001110101111110000101001111011101101110010110100001111010111101010101100010001100100001110111011011100101011111010'
p63
sba(iAG
indviduo
p64
(dp65
g7
F7923.456527362286
sg8
S'1111010011101011010011010100111110001010010011011011011000111010000011001110100001011101110100101100111001001000100100110110001010000000101111001001001111000101110111011101110100001001101010110101010110100101010010001110100111110110110000001011100111110100111000010011111100011011011110100100111011101111110011001110101111110000101001111111101101110010110100100110010011001100100100010011010111001110010010100110100000111101'
p66
sbag64
ag64
a(iAG
indviduo
p67
(dp68
g7
F7906.084581320894
sg8
S'1111010010101011010011010100110101001010010011011011011000101000101000011001001010010110110010000011000110111011100111010101100111000100110110001011001111101101010001010101110001101000111010110101100111100000010010101101000001000011011000111011001101111110010001111110111101110011001111100010101011001011111001001110111111110000101001111111101011110010110110100110010011001001100110010001010110001110100010001111101111110000'
p69
sba(iAG
indviduo
p70
(dp71
g7
F7820.6213093973565
sg8
S'1010000010001100101111111011010001001010010011111011011000101000101000011001001010010110110010000011001110111011100111010101100111000100110110001011000111101101010001010111110001101000111000110101100111000000010010101101000001000011011000111011001100111100111101101001111101110011001101100010101011011001111011100110101110110000010010111010101111010001111100100100111110010010110101001101011101001111101010001110101111110000'
p72
sbag70
a(iAG
indviduo
p73
(dp74
g7
F7777.117363072258
sg8
S'0110000110101100100011010100110101001000111011011011011000101010100011001010100011001101110000100101101001111011100011000101100111000000111111001011001110001101010001011101110001101000100010110101100111100000000010101100000001010011011011101111011111111100010000111111110101111001111111010000101111001011111010100110101111110000101001111001101101110010111100001111010111111010101100010001100100001110111011011100101011111010'
p75
sba(iAG
indviduo
p76
(dp77
g7
F7741.8241743790595
sg8
S'1111111110000101111011000100011011000101100000111100000111100100100011001110110000011011110100110101010111001000101100001110000101011010101101000100001101001010110111011101010011111010101110110100110101111101010110001111100111110110110000000010100111110101010001100111110101111011111101010000101111001011111011001110101011110000101001111011101101110010110100001111010111101010111101011101010111001101001011101110100110101011'
p78
sba(iAG
indviduo
p79
(dp80
g7
F7716.717537463711
sg8
S'1010001010010000110111110011000000100110010111111100000001110000111111010001010010111010010010000000010011111110100110000001101111110011010011101011111111011000111110111101100111011011101010101101000111110101100010111101111101010011011011101111011111111100010001110111110101111011111111010000101111001011111010100110101111110000000010110010110111010000110100100110010011001100100010010000010010001111101001001110101100101001'
p81
sba(iAG
indviduo
p82
(dp83
g7
F7669.873521968925
sg8
S'0111010010001000110111011010010010001010010011011001011000101010100011000110100000001001110100100100111001001000011110101110010001101111001111011011001010010100011000011110011011000011111010101111000101110101000100110100011011110001110001100011100111110101010010110010011101110100101111000010101011110011111011000110101011111001001011111011111111110110101100001100110000010010111101001000010010001111101001001110000110101001'
p84
sba(iAG
indviduo
p85
(dp86
g7
F7616.009317943354
sg8
S'1111000010001100100111111011010001000110010011011011010000101010100011000110100011011101010000111101000111101001001100011110000101001110101101000100001011011110011100001100110001010000101010111101110111100001010010001110100110110111110011010011101100111100111101101001110101100011001101100000101111001011111011110110101111110000000010111010101111010010110100100111010011011110101010010000000110001010000011101110101110110001'
p87
sba(iAG
indviduo
p88
(dp89
g7
F7601.615959715405
sg8
S'0111010010101000110111110010010010001010010011011001011000101010100011001110100000001001110100100011000110111011100011000101100111000000110111001011001110001101010001011101110001101000100010110101100111100000000010101101000001000011001000111111001101110111010000110110110111110101001011110010101011101101111011010110101011111001001011101011111111110110101100100000110000010010111101001101010011000110101010001111101111110000'
p90
sbag88
a(iAG
indviduo
p91
(dp92
g7
F7532.425780118914
sg8
S'1010001010010000110111110010010010101010010011011001011000101010100011001110110000001001110100100011000110111011100011000101100111000000110111001011001110001101010001011101110001101000100010110101100111100000000010101101000001010011011011101111011111111100010001110111110101111011111111010000101111001011111010100110101111110000000010110010110111010000110100100110010011001100100010010000010010101111101001001110101100101001'
p93
sbag91
a(iAG
indviduo
p94
(dp95
g7
F7513.458721321361
sg8
S'1011001010010000110111110011010000100110000111011101011110001010100011000110100011001101010100111101001101100000110100110110101011010010101111000001111110110100011111011100111001100011111010110111111000110110101101111000011111110001010001101111011111111100010001110101010101111011111001000010101111001011111011100110101111110000100010110010101011010100110100100111010011011110111101011101010111001100001011101110100110101001'
p96
sba(iAG
indviduo
p97
(dp98
g7
F7448.222619054833
sg8
S'1110000000000110000111111011010011000100110110011001011000101010101011001010101011001101111100100100111001101000011110101110010001101011001111011011001010010100011000011110011011000011111010101111000101110101000110110100011011110001110011100011100111110100010010110010011101110100101011100010101011110011111011000110101111111001001011011011111110110111100101000111000011001000100100010101100100011110011010010100100111101001'
p99
sba(iAG
indviduo
p100
(dp101
g7
F7390.947254242856
sg8
S'1010001010010000110111110010010010101010010011011001011000101010100011001110100000001001110100100011000110001000011110001110110111110010001101011101011010010000001101011100010001001001111011110111110110100001010010001110100111111111111000001011100110110111110011011000111101110100001011010000101111001011111011011110101111110000000010110010110111010000110100100110010011001101100010010000010010101111101101001110101100111000'
p102
sbag100
a(iAG
indviduo
p103
(dp104
g7
F7299.90134803204
sg8
S'0111010010101000110111110010010011001010010011011000011000101010100011001110100000001001110100100011000110111011100011000101100111000000110111001011001110001101010001011101110001101000100010110101100111100000000010101101100001000011001000111111001001110110010000110110110110111011111101010000101111001011111011001110101110110000101001111011101101111010110100001110010111101010101100010000110100001110111011011100101011111011'
p105
sba(iAG
indviduo
p106
(dp107
g7
F7180.744184344685
sg8
S'1110000000100101110011000000010010010111000000011000000101100000101101011001000000011010110010000011010011111010100111000011101011110010000000001000111111001000011111101101100011001011101010101101000001110101110010111100101111110001110011110011100000110000010001001010111101000100001111100110101011100011111001000110101111111001001011011011111110110111100101000111000011001000100100010101100100011110011010010100100111101001'
p108
sbag106
a(iAG
indviduo
p109
(dp110
g7
F7082.192495054057
sg8
S'1111010010001000110111110010010010001010010011011001011000101010100011001110100000001001110101100100111101000000111110101100010001101010001111010111001010010100011000010110111011100011111010101111000101110101001111111000011111110001010001101111011111111100010001110101010101111011110001000010101111001011111011100110101111110000100010110010101010010000110100100111010011011110111101111101010111001100001011101110100110001001'
p111
sba(iAG
indviduo
p112
(dp113
g7
F7060.896073799701
sg8
S'1111000010001100100111111011010001001110010010011010001000111110110111001111100001011101010100111101010111001000101100001110000101011110101101000100001011011110011100001110110011010000101010111101110111100001010010001110100110110111110011010011101101111100110101101001111101100011001101100010101011001001010011100110101110110000010010101000101111010001111100100111010011001110101010010000000110001010001011101110100100110001'
p114
sbasS'metodo_de_selecao'
p115
I1
sS'taxa_de_reproducao'
p116
F0.95
sS'taxa_de_mutacao'
p117
F0.02
sS'numero_genes_por_cromossomo'
p118
I8
sS'tamanho'
p119
I50
sS'numero_de_cromossomos'
p120
I53
sS'funcao_aptidao'
p121
c__main__
valor
p122
sb.