(iAG
populacao
p1
(dp2
S'indiv'
p3
(lp4
(iAG
indviduo
p5
(dp6
S'aptidao'
p7
F11895.028060189687
sS'codigo_genetico'
p8
S'1111101111000111100111111111111101011001000010110101001101011001100000101010000011011010000011101100111000000000011011101111011001010111110110010111001011001101010111101011111011000010110110101011101101000001100101111001001100100001111111101100111110000001101100111100001001010110101100010011101110101100110011001001111011100001011010101101111011110100100100101100010011000000100100110110000010011111010100010010100100110110'
p9
sba(iAG
indviduo
p10
(dp11
g7
F11876.926806068146
sg8
S'1111101111000111100111101110110101011011000010100101001101010110100010011011100011011100001011101100011000011001011011101111011101000001110110000111111011001101010100101011111011001010110110101011101001000001100101111001001100100001111111101110011110010001101100111100101001010110101100010011101110101100110011001001101011010001011010101101011111100001100011011101010111010000100101100110010110011100010000010000111000100110'
p12
sba(iAG
indviduo
p13
(dp14
g7
F11876.242686839134
sg8
S'1111101111000111100111111111111101011001000010110101001101011001100000101010000011011010000011101100111000000000011011101111011001010111110010010111001011001101010111101011111011000010110110101011001001000001100101111001011100100001111111111101111010001000110001101101101001100000100111010011111110101110111001011001100011000111011110101101011011110110100011011101010111010110100111110110000010011111010100010010100100110110'
p15
sba(iAG
indviduo
p16
(dp17
g7
F11861.958750421449
sg8
S'1111111111000111100111101110110101011011000010100101001101010110100010011011101011001001001000101100011100011000011011001111011101000111110110000111011111001101010110101011111011001010110110101011101001000001100101111001001100100000111111101100111010010001110001011110000101100000100111000011111110101110111001011001101011000101011110101101011111110101100011011101010111010000100101100110010110011100010000000000111000100110'
p18
sba(iAG
indviduo
p19
(dp20
g7
F11854.287809594465
sg8
S'1111101111000101100111111111111101011001000010110101001101010110100010011011100011011100001011101100011000011001011011101111011001000001110110000111111011001001010100101011111011001010110110101011101001000001100101111001001100100001111111101100111110000001101100111100101001010111100110100011101110101110111011011001101011011101011010101101110011100100100100101100010111000000100100100110100110011111010100110010101000110101'
p21
sba(iAG
indviduo
p22
(dp23
g7
F11849.717215136401
sg8
S'1111001111000111100110101111111101011100000010110101011101010111100010111011000111111001001000001100101100000100011101101111010101000011110110000111011011001101010101101011111011000010110110101011101001000001100101111001001100100000111111101100111010000001101100111100101001010110100100010011101110101100111011011001101011000001011010101101001011110110100011011101010111010000100101100110010110011100010000010000011000110000'
p24
sba(iAG
indviduo
p25
(dp26
g7
F11848.093095713755
sg8
S'1111111111000111100111101110110101011011000010100101011101010110100010011011101011011001001000101100010100001000011011001111011101000111110110000111011111001101010100101011111011001010110110101011101001000001100101111001001000100000111111101100110010000101101000111100101001010110100111110011111110110100111001111001101011100001011010101101011111100101100011011101010111010000100101100110010110011100010000000000111000100010'
p27
sba(iAG
indviduo
p28
(dp29
g7
F11841.048246785418
sg8
S'1111111111000111100111111110111101011011000011110101011101010111100010111010000011111000001000001100101100000100011111101111011101000011110110000111011011001101010001101011111011000010110110101011001001000001100101111001011100100001111111111100111010001000110001101101101001100000100111010011111110101110111001011001100011000111011110101101011011110110100011011101010111010110100111110110000110011100010000010000011000100000'
p30
sba(iAG
indviduo
p31
(dp32
g7
F11837.212608241012
sg8
S'1111111111000111100111101110110101011011000010100101001101010110100010011011101011011001001000101100010100001000011011001111011101000111110110000111011111001101010100101011111011001010110110101011101001000001100101111001001100100000111111101100110010000101101100111100101001010110100111110011111110110100111001111001101011100001011010101101011111100101100011011101010111010000100101100110010110011100010000000000111000100110'
p33
sba(iAG
indviduo
p34
(dp35
g7
F11830.728490955236
sg8
S'1111101111000111100111111111111101011001000010110101001001011011100000101010001011011000000011101100110000000000011011101111011001000111110110000111011011001101010111101011111011000010110110101011101101000001100101111001001100100010111111101101111110100001111010011100001001010111100100110011101110101110111011001001111011100001011010101101100011100100100101101100010011000000100110010110000010011111010100010010101100101100'
p36
sba(iAG
indviduo
p37
(dp38
g7
F11830.334738573545
sg8
S'1111001111000110100111101110111101011100000010110101011101010111100010111011000011111001001000001100100100000100011111101111011101000011110110000111011011001101010101101011111111000010110110101011101001000001100101111001011100100001111111101100111010000000110001101101101001010110100100100011111110110100111001111001101011010011011010101101011111100101100001001101010111010000100101100110010110011100010000010000011000100000'
p39
sba(iAG
indviduo
p40
(dp41
g7
F11828.648817794026
sg8
S'1111101111000111100111111111111101011001000010110101001001011011100000101010001011011000000011101100110000000000011011101111011001000111110110000111011011001101010111101011111011000010110110101011101101000001100101111001011100100010111111101101111110100001111010011100101001010111100100110011101110101110111011001001101011100101011010101101001011110110100011001101010111010000100101100110110110011100010000010000011000100000'
p42
sba(iAG
indviduo
p43
(dp44
g7
F11828.248689839927
sg8
S'1111111111000111100111101110110101011011000010110101001001011011100000101010001011011000000011101100110000000000011011101111011001000111110110000111011011001101010111101011111011000010110110101011101101000001100101111001001100100010111111101101111110100001110001011110000101100000100111000011111110101110111001011001101011000101011110101101011111110101100011011101010111010000100101100110010110010100010000000000111000100110'
p45
sba(iAG
indviduo
p46
(dp47
g7
F11814.124202186973
sg8
S'1111111111001111100111101110110101011011000010100101001101010110100010011010101011011001001000101100010100001100011011001111011101000011110110000111011111001101010100101010111011001010110110101011101001000001100101111001001100100000111111101100110010000101101100111100101001010110100111110011111110110100111001111001101011100001011010101101011111100101100011001101010111010000100101100110010110011100010000010000011000100000'
p48
sba(iAG
indviduo
p49
(dp50
g7
F11813.772836765567
sg8
S'1111001111000111100110101111111101011100000010110101011101010111100010111011000111111001001000001100101100000100011101101111010101000111110110000111011011001101010101101011111011000010110110101011101001000001100101111001001100100000111111101100111010000001101100111100101001010110100100010011101110101100111011011001101011000001011010101101001011110110100011011101010111010000100101100110010110011100010000010001011000110000'
p51
sba(iAG
indviduo
p52
(dp53
g7
F11810.451951669758
sg8
S'1111101111000111100111101110110101011011000010100101001101010110100010011011100011011100001011101100011000011001011011101111011001000001110110000111111011001101010100101011111011001010110110101011101001000001100101111001001100100001111111101100111110000001101100111100101001010110101100010011101110101100110011001001101011100001011010101101011111100101100011011101000111010000100101100110010110011100010000010000111000100110'
p54
sba(iAG
indviduo
p55
(dp56
g7
F11801.983764465194
sg8
S'1111111111000111100111101110110101011011000010110101001001011011100000101010001011011000000011101100110000000000011011101111011001000111110110000111011011001101010111101011111011000010110110101011101101000001100101111001011100100000111111101100110010000101101100111100101001010110100111110011111110110100111001111001101011100001011010101101011111100101100011011101010111010000100101100110010110011100010000000000111000100110'
p57
sba(iAG
indviduo
p58
(dp59
g7
F11800.274389975004
sg8
S'1111101111000111100111111111111101011001000010110101001001011011100000101010001011011000000011101100111000000000011011101111011001000111110110000111011011001101010111101011111011000010110110101011101101000001100101111001011100100010111111101101111110100001111010011100101001010111100100110011111110110100111001111001101011100001011010101101011111100101100011011101010111010000100101100110010110011100010000010000011000100010'
p60
sba(iAG
indviduo
p61
(dp62
g7
F11799.863942126622
sg8
S'1111111111000111100111101110110101011011000010100101001101010110100010011011101011011001001000101100010100001001010011101111111001010101110110000111011011001101010111101011111011000010110110101011101101000001100101111001000100100010111111101101111110100001111010011100001001010111100100100011101110101010111011001001111011100001011010001101011011100101100011011101010111010000100101100110010110011100010000000000111000100110'
p63
sba(iAG
indviduo
p64
(dp65
g7
F11798.46325614908
sg8
S'1111101111000111100111111110111101011011000011110101011101011110100010011011001011011001001000101100100100000010011011101111011101000111110110000111011011001001010100101011110111000000110110101011101001000001100101111001001000100100111111101100111010000010110001001110001001010111100110110011101110101110111011011001101011000101011000101101001011110111100001011101011111010000100101110110110110011100010000010000011000100000'
p66
sba(iAG
indviduo
p67
(dp68
g7
F11797.863396085751
sg8
S'1111101111000111100111111110111101011001000011110101011101011110100010011011001011011001001000101100100100000010011011101111011101000111110110000111011011001101010100101011110111000000110110101011101001000001100101111001001000100100111111101100111010000000110001001110001001010111100110110011101110101110111011011001101011000101011010101101001011110110100001011101011111010000100101110110110110011100010000010000011000100000'
p69
sba(iAG
indviduo
p70
(dp71
g7
F11794.530522437082
sg8
S'1111111111000111100111111110111101011011000011110101011101010111100010111011000011010001000100111100110100000100011011001111010001000100110111000111001011011100010100001011101011001010110110111011001101000001100001101001010100110001111111111110111110100101111010011110000101100000100111010011111110101110111001011001101011000111011110001101011011110110100011011101010111010110100111110110000110011100010000010000011000100000'
p72
sba(iAG
indviduo
p73
(dp74
g7
F11787.835985400374
sg8
S'1111101111000111100111111111111101011001000010110101001101011001100011101000000011011010000011101100111000000000011111001111011001010111110110010111001011001111010111101011111011000010110110111011101101000001100101111001001100100100111111101100111010000000110001001110001001010111100110110011101010101110111011011001101011000101011010101101001011110110100001011101011111010000100101110110110110011100010000010000011000100010'
p75
sba(iAG
indviduo
p76
(dp77
g7
F11786.851805494969
sg8
S'1111001111000111100110101111111101011100000010110101011001010111100010111011100111111001001000001100101100000100011101101111010101000111110110000111011011001101010101101011111111000010110110101011101001000101100101111001011100100001111111101100111010000000110001101101101001010110100100100011111110110100111001111001101011000011011010101101011111100101100001001101010111010000100101100110010110011100010000010001010000110000'
p78
sba(iAG
indviduo
p79
(dp80
g7
F11786.327519151164
sg8
S'1111101111000011100111111111111101011001000010110101100001011011100010101010001011011000000011101100110000000000011011101111011001000111110110000111011011001101010100101011111011000010110110101011101001000001100101111001011100100010111111101101111110100001111010011100101001010111100100110011101110101110111011001001101011100101011010101101001011110110100011001101010111010000100101000110110110011100010000010010011000100000'
p81
sba(iAG
indviduo
p82
(dp83
g7
F11782.955149906158
sg8
S'1111101111000111100111111111111101011001000010110101001101011001100000101010000011011000000011101100111000000000011011101111011001010111110110000111001011001101010111101011111011000010110110101011101101000001100101111001011100100010110111101100111110000001101100111100100001010110101100010011101110101100110011001001111111100001011011101101111011110100100100101100010011000000100100110110000010011111010100010010101100110110'
p84
sba(iAG
indviduo
p85
(dp86
g7
F11775.271114955274
sg8
S'1111101111000011100111111111111101011001000010110101101001011011100010101010001011011000000011101100110000000000011011101111011001000111110110000111011011001101010100101011111011000010110110101011101001000001100101111001001100101000111111101100111010000001110100011100101001010010110100110011101110101110111011011001101011010101011010101101001111110110100011011101010111010000100101100110110110011100010000010000011000100000'
p87
sba(iAG
indviduo
p88
(dp89
g7
F11774.400417460753
sg8
S'1111111111000111100111101110110101011011000010100101001101010110100010011011101011011001001000101100010100001000011011001100111101010111110110000111110111011100010100101011001011000011110110111011001101010001100001101001011100100001111111101100111010010001110001011110000101100000100111000011111110101110111001011001101011000101011110101101011111110101100011011101010111010000100101100110010110011100010000000000111000100110'
p90
sba(iAG
indviduo
p91
(dp92
g7
F11771.887816008952
sg8
S'1111111111000111100111101110110101011011000010110101001101010110100010011011100011011100001011101100011000011001011010111101011001010101110110000111010111001011010111101011011111100010110100101011101001000001100011101100001000100000111011011100111010100001110011101101101001010110100100110011111110110100111001111001101011100010011010101101001111100101100011011101010111010000100101100110010110011100010000010000011000100010'
p93
sba(iAG
indviduo
p94
(dp95
g7
F11771.44336692404
sg8
S'1111101111000111100111101110110101011011000010100101001001011011100001101010001111011000000011101100110000000000011011101111011001000111110110000111011011001101010110101011111011000010110111101111101101000001100101101001001100100001111111111110111010100101101100101100101001010110101100010011101110101000110011001001101011100001011010101101011111100101100011011101000111010000100101100110010110011100010000010000111000100110'
p96
sba(iAG
indviduo
p97
(dp98
g7
F11770.679433095609
sg8
S'1111001111000111100111101110111101011100000010110101011101010111100010111011000011111001001000001100101100000100011111101111011101000011110110000111011011001101010101101011111011000010110110101011101001000001100101111001011100100001111111101100111010000000110001101101101001010110100100110011111110110100111001111001101011000001011010101101011111100101100001001101010111010000100101100110010110011100010000010000011000110000'
p99
sba(iAG
indviduo
p100
(dp101
g7
F11770.679433095609
sg8
S'1111001111000111100111101110111101011100000010100101011101010111100010111010000011111001001000001100101100000100011111101111011101000011110110000111011011001101010101101011111011000010110110101011101001000001100101111001011100100001111111101100111010000000110001101101101001010110100100110011111110110100111001111001101011000001011010101101011111100101100001001101010111010000100101100110010110011100010000010000011100101101'
p102
sba(iAG
indviduo
p103
(dp104
g7
F11770.014312000645
sg8
S'1111111111000111100111101110110101011011000010100101001101010110100010011011100011011100001011101100011000011001011011101110011001010101110110000111010111001010010111101011011111100010110100101011101001000001100011101100001000100010111011111100111010100001110011101101101001010110100100110011111110110100111001111001101011100001011010101101011111100101100011011101010111010000100101100110010110011100010000010000111000100110'
p105
sba(iAG
indviduo
p106
(dp107
g7
F11769.534590148414
sg8
S'1111101111000111100111111111111101011001000010110101001001011111100001101011001011011000001011101100110000001111011001001110011101000001110110000111101011001101010100101011111011001010110101101011101001000001100101111001001100101000111111101100111010000001111010011100001001010111100100110011101110101110111011001001111011100001011010101101100011100100100101101100010011000000100010010110000010011011010100010010101100101100'
p108
sba(iAG
indviduo
p109
(dp110
g7
F11768.727832807588
sg8
S'1111101111000111100111111110111101011001000111110101011101010110100010011011001011011001001000101100100100000010011011101111001101000111110110000111011011001101010100101011110111000000110110101011101001000001100101111001001000100001111111101100111110001001101100111100001001010110101100010011101110101100110011001001111011100001011010101101110011110100100100101100010011000000100100110110000010011111010100010010100100110110'
p111
sba(iAG
indviduo
p112
(dp113
g7
F11766.89464118295
sg8
S'1111101111000111100111101111101101011001000011110101011101010111100010111011000011011001000100111100110100000100011011001111010001000000110111000111001011011100010100101011101011000010110110111011001101000001100001101001010100100000111111101100111110001001101100111100101001010110101100010011101110101110111011011001101011000101011010101101001011110110100011011101011111010000100101100110010110011100010010010000011100101101'
p114
sba(iAG
indviduo
p115
(dp116
g7
F11764.589611316667
sg8
S'1111101111000100100111011110111101011001000010110101001001011111100001001011001011011000000010101100110000000000011111101111011001000111110100010111011011001101010111101011110011000010110110101011101001000101100101111001001100100010111111101101111110100001111010011110000101100000100111110011111110101000110011011001101011000101011010101100001011110110100010001110000111010111100101100110010110001100010000010000011000110000'
p117
sba(iAG
indviduo
p118
(dp119
g7
F11763.527780504453
sg8
S'1111101111000110100111111110111101011001000010110101001001011111100001101011001011011000001011101101110000001111011001101110011101000001110110000111111011001101010100101011111011001010110111101011101001000001100101111001001100100000111111101100111110001001101100111100101001010110101100010011101110101110111011011001101011000101011010101101001011110110100011011101010111010000100101100110010110011100010010010000011100101101'
p120
sba(iAG
indviduo
p121
(dp122
g7
F11763.512220536008
sg8
S'1111101111000110100111111110111101011001000010110101001001011111100001101011001111011000001011101101110000001111011001101110011101000001110110000111101011000101010000111011110011001010110111001011100001000001100101111001101000100000111110101100111110001001101100101101101001010110100101110011111110110100111001111001101011010001011010101101011111100101100001001101010111010000100101100110110110011100010000010000011000100000'
p123
sba(iAG
indviduo
p124
(dp125
g7
F11762.774588620661
sg8
S'1110101111000111100111101111101101011001000011110101111101010111100010111011000011011001000100111100110100000100011011001111110001000100110111000111001011011100010100001011101011000010110110111011000101000001100001101001010100110001111111111110111110100101101100111100101001010110100100110011101110101110111001111001101011100001011010101101011111100101100011011101010111010000100101100110010110011100010000010000011000100010'
p126
sba(iAG
indviduo
p127
(dp128
g7
F11761.509530868052
sg8
S'1110111111000111100111101110111101011101000010110101001001010111100010101011000011011000001011001100010000011001011011101111011001000001110110000111011011001101010111101011111011000010110110101011101101000001100101111001000100100010111111101101111110100001111010011100001001010111100100100011101110101010111011001001111011100001011010001101011011110110100100101100010011000000100100110110000010011111010100010010101100110110'
p129
sba(iAG
indviduo
p130
(dp131
g7
F11761.128968627969
sg8
S'1111101111001011100111111111111101011001000010110101100001011011100010101011011011011000000011101100110000000000011011101111111001000111110110000111011011001101010100111011111011001010110101101011101001000001100101111001001100101000111110101100111010000011111010011100001001010111100100110011101110101110111011001001111011100001011010101101100011100100100101101100011111010000100101000110010110011100010000010010011000100000'
p132
sba(iAG
indviduo
p133
(dp134
g7
F11757.746343185841
sg8
S'1111111111000111100111101110110101011011000010100101001101010110100011011011101011011001001000101100010100001000011011001100111101010111110110000111110111011100010101101011001011000011110110111011001101010001100001101011011100100001111111101100111010010001110001011110000101100100100111000011111110101110111001011001101011000101011110101101011111110101100011011101010111010000100101100110010010011100010000000000111000100110'
p135
sba(iAG
indviduo
p136
(dp137
g7
F11753.674562565528
sg8
S'1111101111000111100111111110111101011001000011110101011101010111100010011011000011011001001000101100110100000010011011101111011101000111110110000111011011001101010100101011110011000000110110101011101001000001100101111001001000100100111111101100111010000000110001001110001001010111100110110011101110101110111011011001101011000101011010101101001011110110100001011101011111010000100101110110110110011100010000010000011000100000'
p138
sba(iAG
indviduo
p139
(dp140
g7
F11752.728988992301
sg8
S'1110101111000111100111101111101101011001000011110101011101010111100010111011000011011001000100111100110100000100011011001111010001000100110111000111001011011100010100101011101011000010110110111011001101000001100001101001010100110001111111111110111110100101101100111100101001010110100100110011101110101110111011011001101011000101011010101101001011110110100011011101010111010000100101100110010110011100010000010000011100101101'
p141
sba(iAG
indviduo
p142
(dp143
g7
F11752.5026872875
sg8
S'1111101111000111100111111110111101011001000011110101011101010111100010011011000011011001001000101100110100000010011011101111011101000111110110000111011011001101010100101011100011000000110100101011101001000001100101111001011100100001111111101100111010000000110101101101101001010110100100100011111110110100111001111001101011010011011010101101011111100101100001001101010111010000100101000110010110011100010000010000011100100000'
p144
sba(iAG
indviduo
p145
(dp146
g7
F11752.04303237101
sg8
S'1111101111000011100111111111111101011011000010110101100001011011100010101011101011011000000011101100100000001000011011101111001101000011110110000111011011001101010101101011111111000010110110101011101001000001100101111001011100100001111111101100111010000000110001101101101001010110100100100011111110110100111001101001101011010011011010101101001011110110100011011101010111010000100101000110110110011100010000010010011100100000'
p147
sba(iAG
indviduo
p148
(dp149
g7
F11751.005456840703
sg8
S'1111111111000111100111101110110101011011000010100101001101010110100010011011101011011001001000101100010100001000011011001111011101000111110010000111011111001101010100101011111011001010110110101011101001000001100101111001001100100000111111101100110010000101101110011110000101100000100111110011111110101000110011011001101011000101011010101100001011110110100010001110000111010111100101100110010110000100010000010000011000110000'
p150
sba(iAG
indviduo
p151
(dp152
g7
F11746.053100624908
sg8
S'1111101111000011100111111111111101011011000010110101100001011011100010101011001011011000000011101100110000000000011011101111011001000111110110000111011011001101010100101011100111110000110100101011010001001010100101111101001010100000111111111110111000100101101100111100101001010110100111110011101110101110111011011001101011100101011010111101001011110110100011011101010111010000100101000110110110011100010000010010011100100000'
p153
sba(iAG
indviduo
p154
(dp155
g7
F11744.495951921479
sg8
S'1111111111000011100111101110110101011011000010100101001101010110100010011010100011011100001011101100011000011001011011101110011001010101110110100111010111001010010111101011011111100010110100001011101001000001100101111001111101100001111111101100111010000000110001101101101001010110100100100011111110110100111001111001101011010011011010101101011111100101100001001101010111010000100101100110010110011100010000010000011000100000'
p156
sbasS'metodo_de_selecao'
p157
I0
sS'taxa_de_reproducao'
p158
F0.95
sS'taxa_de_mutacao'
p159
F0.02
sS'numero_genes_por_cromossomo'
p160
I8
sS'tamanho'
p161
I50
sS'numero_de_cromossomos'
p162
I53
sS'funcao_aptidao'
p163
c__main__
valor
p164
sb.