(iAG
populacao
p1
(dp2
S'indiv'
p3
(lp4
(iAG
indviduo
p5
(dp6
S'aptidao'
p7
F10966.847312395661
sS'codigo_genetico'
p8
S'1011110110001101011110110110010011101101010101001100001011110101101010011011001011111010110011010100000110010101001100101110101000100010101010000110010111000101010000001110001011000111111001111111000110000110011111011111010001101010010100001111100010110000101100111111100000111010111000100000111011001000111100011000101110100111010101100111000111110100100000100111011011001010110011011010010011000010101101010000001110011001'
p9
sba(iAG
indviduo
p10
(dp11
g7
F10914.725774081542
sg8
S'1101111111001110010111100110001111000100000101011101010011101101100011001011001011110110110011011000000010000011100101001111001000011011011001111001100110100000010010001100001011000101111001101110100110101111111111101111100100110011001011001111100110100010111000111111100000111010111000100000111011001100111100011000101110100111010101000111000111111100100000000111011111000000111111011010010111000001101100110000011010001001'
p12
sba(iAG
indviduo
p13
(dp14
g7
F10902.395200569463
sg8
S'1011110110001101011110110110011011101101010101001100001011110101101010001011001011111010110011010100000110010101001100101110101000100010101010000110010111000101010000001110001011000111111001111111000110000110011111011111010001101010010100001111100010110000111100111111100000111010111000100000111011001100111100011000101110100111010101100111000111111100100000100111011011001010110011011010010011000010101101010000001110100001'
p15
sba(iAG
indviduo
p16
(dp17
g7
F10856.312486263465
sg8
S'1011110110001101011110110110011011101101010101011100001011111101101010001011001011111010110011010100000110010001001110101110101000100010101011000110010110000101010100001100000101101100110101110010100111000111011111011111011000101010010100000111100010110001111010101101111101010011101000100010010010111010111101001010010111111101011010001111110011101111101000110111011011001010110011011010010011000010101100010000001110000011'
p18
sba(iAG
indviduo
p19
(dp20
g7
F10851.970464270531
sg8
S'1011110110001101110111010110011111011100010101001100001111001101100010001011001011111010110001011000101010000001101010101111101000011010010001111011011111101001010010111110000001001111110101110010100111000111011111011111010000101010010110001111100110100010111000111111100000111010111000100000111011001100111100011000101110100111010101000111000111111100100000000111011111000000111111011010010111000001101100110000011110001001'
p21
sba(iAG
indviduo
p22
(dp23
g7
F10850.688193815173
sg8
S'1011110110001001010110110110011011101100010101011100001011001101101010001011000011111010110011010100010110010001001111101110101000111010101011000110010110010111010001001100011011000111110101111000000110101111111111011101100100110010001011010110111010100010111000111111100000111010111000100000111011001100111100011000101110100111010101000111000111111100100000000111011111000000111110011010010111000001101100110000001110001001'
p24
sba(iAG
indviduo
p25
(dp26
g7
F10845.644710730663
sg8
S'1001110110001101110110000110011111011100010101001100001111001101100010001011001011111010110001001000101010000001101011101111001000011010010001111011011111101001010010111110000001001111110101110010101111000111011111011111010000101010010100001111100110110010111001111101111101100010111000100001111011000100110000100011001111111101011000001011110011101111101000110111011011001010110011111010010011000011101100010000001110000011'
p27
sba(iAG
indviduo
p28
(dp29
g7
F10842.347681079038
sg8
S'1011110110001101011110110111011011101110010101011100011011001101101010001111000011101010110011010100000010010001001111101110101000101010101011000110100111010110010011001001100010101111110101011110010111000101011111111110100000101010010100001111000110110010111000101101011101010010101010100011010010110010111110101011011111111011011000001111110011101111101000110111110111000100110011111010110011000111101100000000000110001101'
p30
sba(iAG
indviduo
p31
(dp32
g7
F10829.029599525526
sg8
S'1011010110001101010110100111011011111100010111011100001010001101101010001011011011011010111011011000011010000001100011101111111000011010010000111001000111000101010000001110001011000111111001111111000110000110011111011111010001101010010100001111100010110000111100111111100000111010111000100000111011001100111100011000101110100111010101100111000111111100100000100111011111000000111111011010010111000001101100110000011110001001'
p33
sba(iAG
indviduo
p34
(dp35
g7
F10829.002722938063
sg8
S'1011110110001101110111010110011111011100010101001100001111001101100010001011000011111010110001011000101010000001101010101111100000011010010001111011111111101001010010111110000001001111110101110010100111000111011111011111010000101010010110001111100110100010111000111111100000111010111000100000111011001100111100011000101110100111010101000111000111111100100000001111011111000000111111011010010111000001101100110000011110001001'
p36
sba(iAG
indviduo
p37
(dp38
g7
F10828.216185660498
sg8
S'1011110110001101011110110110011011101100010100011100001010111101101010001011001011111010110011010100000110010001001110101111101000011011010001101011010111100101010000001111100001001001110001101010001110011111110111011101100100110010001011000111111011100110111000101111100101100010111000100001101011000000111010101011001111111101011010001111110011101001101000110111011010000010111011001010010010000010101100000000001110000001'
p39
sba(iAG
indviduo
p40
(dp41
g7
F10808.622018527614
sg8
S'1111111010000110010111100110011111001100000101111100010011101101101010001011001010111010110101011000001010100000100011101110101000111011000001111011010111100101010000001110000001001100110101110010100110000111011111011111010000100010010100001111100010110010110010101101111101010010101000100010010010111010111101001010010111111101011010001111110011101111101000110111011011001010110011011010010011000010101100010000001110000001'
p42
sba(iAG
indviduo
p43
(dp44
g7
F10805.51828962406
sg8
S'1011110110001101010110010110011011101100011101011100011011011101101010001011001011111010110011010100000110010001001101101110101000101010101011000110100111000110010011001001100010101111110101011110010011000101011111111111110100101010010100101111000110110010111000111111100000111010111000100000111011001100111100011000101110100101010101000111000111111100100000000111011111000000111011011010010111010001101100110000011110001001'
p45
sba(iAG
indviduo
p46
(dp47
g7
F10786.210301556333
sg8
S'1011110110001101010110110110011011101100010101011100011011011101101010001011001011101010110011010100000110010000001111101110101100101010101011000110011110010100010000001100001011000111111000111000000110101111111111011101101100110000001011000111111010010010111000101101111101010010101010100011010010110010111110101011011111111011011010011111111011101111101000111111111011001010110010101010010011001001101100010000111110001001'
p48
sba(iAG
indviduo
p49
(dp50
g7
F10780.941970505177
sg8
S'1011010110001101010110100111011011111100010111011100001010001101101010001011011011011010111011011000011010000001100011101111111000011010010000111001001111000101010001001110000011000111111001111111000110001110011111011111010001101010010100001111101010110000111100111111100000111010111000100000111011001100111100011001101110100111010101100111000111111100100000100111011111000001111111011010010111000001101100010000011110001001'
p51
sba(iAG
indviduo
p52
(dp53
g7
F10779.961314466764
sg8
S'1011110110001101001110110110011011101101010101011100001011111101101010001011001011111010110011010100000110010001001110101110101000101111110001011011110111100101010000001110000010101111110101111110110111000101011111111111110000001010010100001111000110110000110001111111110101100010011000100001111011010101110100101011001111111101011010001111110011101111101000110111011011001000110011011010010011000010101100010000001110000001'
p54
sba(iAG
indviduo
p55
(dp56
g7
F10777.50929525927
sg8
S'1101111111001110010111100110011111000100000101111101010011101101100011001011001011110110110011011000000010000011100101001111001000011011010001111101100110100000010010001100001011000101111001101110100110101111111111011111100100110011001011000111111010100010111000111111101000111000111001100000110011001100111100011000101110100111010101000111000111111101100001000111010111100000111111011010010111000011111100110001011111000001'
p57
sba(iAG
indviduo
p58
(dp59
g7
F10777.233437455086
sg8
S'1011010110001111010110100111111011111100010111011100001010011101100010001011011011011010111011011000011010000001100011101111111000011010010000111001000111000001010000001110001011000111111001111111000110000110011111011111010001101010010000001111100010110001111100111111100010010000101000110001110011010000111010001000101101010001011010000111010011111000100100110111011011001010110010101010010011000001101100010000111110001001'
p60
sba(iAG
indviduo
p61
(dp62
g7
F10777.041263138972
sg8
S'1011110110001111011110111110011111011000010101011101001011000101101010001011001011101000110011011100000010010000001011101010101000111111101011000100010110010101010000111110000001001110110101110010100111000111011111011111010000101010010100000111100010110000111010001101111101000011101000100010010010111010111101001010010111111001011010001111110011101101101000010111011011001010111011011010010011000010101100010000001110001110'
p63
sba(iAG
indviduo
p64
(dp65
g7
F10771.212074293218
sg8
S'1011110110001101010110110110011011101100010101011100011011011101101010001011001011101010110011010100000110010001001111101110101000101010101011000110100111010110010011001001100010101111110101011110010111000101011111111111110000101010010100001111000110110010111000111111100000111000111000100010110010001100111100011000101110100111010101000111000111111101100000000111011111000000110111010010010111000001101100010000001110000001'
p66
sba(iAG
indviduo
p67
(dp68
g7
F10767.602123193446
sg8
S'1101111111001110010111100110011111000100000101111101010011101101100011001011001011110110110011011000000010000011100101001111101000011011010001111101100110100000010000001100001011000101111001111110100110101111111111011111100100110011001011000111111010100010111000111111101000111000111001100000110011001100111100011000101110100111010101000111000111111101100001000111011111100000111111011010010111000011111100110001111111000001'
p69
sba(iAG
indviduo
p70
(dp71
g7
F10764.834384299651
sg8
S'1011110110001101011110110110011011101101010101011100001011111101101010001011001111111010110011010100000110010001001110101110101000100010101011000110000110100101010100001111000001001001110101111000000110101111110111011100100100110010001111000111111010100010111000111111100000111010111000100000111011001100111100011000101110100111010101000111000111111100100000000111011111000000111111011010010011000011101110010011100001101010'
p72
sba(iAG
indviduo
p73
(dp74
g7
F10764.15785500194
sg8
S'1011110110001101010110110110011011101100010101011100001011011101101010001011001011101010110011010100000110010001001111101110101000101010101011000110010110010101010000001100001011000111111001111000000110101111111111011101100100110000001011000111111010010010111000101111100110010000101010110001110011010000111010001000101101010001011010100111010011111000100100110111111011001010110011101010010011000001101100010000111110001001'
p75
sba(iAG
indviduo
p76
(dp77
g7
F10761.566898616577
sg8
S'1011110110001101011110010110011011101110010101011100001011111101101010101011001011111010110011010100000110010011001110101110101001100010101011000110010110000101011100001100000101101100110101110010100111000111011110011111010000101010010100000111100010110000111010101101111001010001101000100010010010111010111101001010010111111101011010001111110011101101101000110111111011001011110010101010010011000101101100010000111110000001'
p78
sba(iAG
indviduo
p79
(dp80
g7
F10758.929732896295
sg8
S'1011110110001111011110010110011111011000010101011100001011000101101010001011001011111010110011011100000010010000001011101010101000111111101010000100000110010101010000001111001011000111110001111111000010000111011111011111010000101110011111100100011010000010110100101111000110010010101000100001110011010000111010011000011101010101011010100111010011110000100100110111011011001010110011111010010011000011101100010000001110001001'
p81
sba(iAG
indviduo
p82
(dp83
g7
F10756.765598608165
sg8
S'1010110110001101011110110110011011101100010101011100001011111101101010001011001011111010110011010100000110010001001110101111101000011011010001101011010111100100010000001100001011100111111001111110110111000101011101111111110000101110010100001111000110000000110001111101101101100010111000100001111111000100111000101011001111111101011010001111110011101111101000111111011111001010111010001010010010000010101100010000001110000000'
p84
sba(iAG
indviduo
p85
(dp86
g7
F10755.109781652627
sg8
S'1011110110001101011110110110011011101100010100011100001011111101101010001011001011111010110011010100000110010001001110101111101000011011010001101011010111100101010000001111100001001001110001111000000110011111111111011101100100110010001011000111111011100110111000101111100101100010111000100001101011000100111010101011001111111101011010001111110011101001101000110111011010000010111011001010010010000010101100010000001110000001'
p87
sba(iAG
indviduo
p88
(dp89
g7
F10752.04534167337
sg8
S'1011110110001101011110110110011011101100010101011100001011111101101010001011001011111010110011010100000110010001001110101110101000100010101011000110010110000101011100001100000101101100110101110010100111000111011111011111010000101010010100000111100010110000111010101101111101010011101000100010010010111010111101001010010111111101011010001111110011101101101000110111011011001010111011011010010011000010101100010000001110000001'
p90
sba(iAG
indviduo
p91
(dp92
g7
F10749.042240655677
sg8
S'1010110110001101011110100110011011101100010101011100001111111101101010001011001011111010110011010100000110010001001100101111101000011011010001101011010111100100010000001100000011100111111001111110110111010101011101111111110000101110010100001111000110000000110001111111111101100010110000000001111011010001110100001011001111111101011010001111110011101111101000110111011111001010111010001011010010000011101100010000001110001001'
p93
sba(iAG
indviduo
p94
(dp95
g7
F10745.476339716168
sg8
S'1011110110001001011110110110010011101101010101101100001011110101101010011010001011111010110011010100000110010101001100101110101000100010101010001110010111000101000000001110011011000111111001111111000110000110011111111111000001101010010100101111100010110001101100111111100000111010111000100011010010111100111100011000101110100101010101000111000111111100100000000111011111000000111011011010010111010001101100110000011110001001'
p96
sba(iAG
indviduo
p97
(dp98
g7
F10744.021120018331
sg8
S'1111111111001101010111000100011111001110010000111101011011111100100010001011001011111010110011011000011010000001100011101111101000011111010001111011010111100100010010001111000001001001110101111000000110101111111111011101100100110010001011000111111010100010111000111111100000111010111000100000111011001100111100011000101110100111010101000111000111111100100000000111011111000000111111011010010111000011101100110001111111101001'
p99
sba(iAG
indviduo
p100
(dp101
g7
F10741.75088602412
sg8
S'1011110110001001010110110110011011101100010101011100001011001101101010001011000011101010110011010100010110010001001111101110101000101010101011000110010110010101010000001100011011000111110101111000000110101111111111011101100100110010001011000111111010100010111000111111100000111000111000100000110011001100111100011000101110100111010101000111000111111101100000000111011111000000111111010010010111000001101100010000001110000001'
p102
sba(iAG
indviduo
p103
(dp104
g7
F10737.721101304502
sg8
S'1011110110001101011110110110011011101101010101011100001011111101101010001011001011111010110011010100000110010101001100101110101000100010101010000110010110000101010100001000000101101100110111110010100111000111011111011111011000101010010100000111100010110011111010101101111101010011101000100010010010111010111101001010010111111101011010001111110111101111101000110111011011001010110011011010010011000010101101010000001110000011'
p105
sba(iAG
indviduo
p106
(dp107
g7
F10736.880927597176
sg8
S'1111111010000110010111100110011111001100000101111100010011101101101010001011001010111010110101011000001010100000100011101110101000111011000001111011010111100101010000001110000001001100110101110010100110000011011111011111010000100010010100001111100010110110110010101101111101010010101000100010010010111010111101001010010111111101011010101111110011101111101000110111011011001010110011011010010011000010101100010000001110000011'
p108
sba(iAG
indviduo
p109
(dp110
g7
F10735.892342017964
sg8
S'1011110110001101011110110110011011101100010101111100001011111101101010001011001011111010110011010100000101010001001110101110101000100010101011000110010110000101011100001100000101101100110101110010100111000111011111011111010000101010010101100111100010110000111010101101111101010011101000010010010010111010111101001010010111111101011010001111110011101101101000000111011011001010110111111010011011001011101100010000001110000001'
p111
sba(iAG
indviduo
p112
(dp113
g7
F10733.749049861377
sg8
S'1110111010000110010111100110011111001000001101111101011011101110100110001011001111111010110011011000011010001101100011101110100000011011010001111011011111100101010000011110100001011110110101110010000111000111011111011111010000101010010100000110101110110000110001111101101101100010111000100001111111000101111000101011001011111101011010001111110011101111101000110111011111001010111011011010010011000011101100010100000110010001'
p114
sba(iAG
indviduo
p115
(dp116
g7
F10730.786577478837
sg8
S'1101111111001110010111100110001111000100000101011101010011101101100011001011001011110110110011011000000010000011100101001111001000011011011001111001100110100000010010001100001011000101101001101110100110101111111111101111100100110011001010001111100110100010111000111111100000111010111000100000111011001100111100011001101110100111010101000111000111111100100000000111011111000000111111011010010111000001101100110000011110001001'
p117
sba(iAG
indviduo
p118
(dp119
g7
F10730.686316140267
sg8
S'1011110110001101010110110110011011101100010101011100001011011000101010001011001011101010110011010100000110010001001111101110101100101010101011000110010110010101010000001100001011000111111001111000000110101111111111011101101100110000001011000111111010010010111000101101111101010010101010100011010010110010111110101011011111111011011000001111110011101111101010110111110111000100110011111010110011000111101100000000000110001101'
p120
sba(iAG
indviduo
p121
(dp122
g7
F10723.8632944196
sg8
S'1011110110001001011110110110010011101101010101101100001011110101101010011011001011111010110011010100000110010101001100101110101000100010101010000110010111000101010000001110001011000111111001111111000110000110011111111111000001101010010100101111100010110000101100111111100000111010111000100011000010110010111110101011011111111101011010101110110011101111101010110111010111000100110011111010111010000111101100000000101110100101'
p123
sba(iAG
indviduo
p124
(dp125
g7
F10722.88284527067
sg8
S'1100111010000110010111100110011111001010010001101101001011001101111010001011001011111000110011011000000010000011100101001111101000011011010001111101100110100000010000001100001011000101111001111110100110101111111111011101100100110010001011000111111010100010111000111111100000111000111001100000110011001100111100011000101110100111010101000111000111111101100000000111011011001000111111010110010111000001101110010011100110001101'
p126
sba(iAG
indviduo
p127
(dp128
g7
F10722.647813362144
sg8
S'1011110110001101010111010110011111011100010111001100001011001101101010001011001011101010110000001100000000000001010001010110111010010011101001101011100111010110110001001001100010001010110101011110000110101111111111011101100100110010001011010110111010100010111000111111100000111010111000100000111011001100111100011000101110100111010101000111000111111100100000000111011111000000111111011010010111000001101100110000011110001001'
p129
sba(iAG
indviduo
p130
(dp131
g7
F10721.67160592974
sg8
S'1111111010000110010101100110011111011000010101011100001011000101101010001010001011110010110011011100000010010000001011101010101000111111101010000100010111010101010000111111000001001001110101111000100110101111011111011101100100110011001111100100111010001010111010011111100000111010111000100000010011111010111111101010011110111110011110000111010011101111101000000111111111000010111111011010011011000010101100010000001110000001'
p132
sba(iAG
indviduo
p133
(dp134
g7
F10719.40677161754
sg8
S'1011110110001111011110011110011111011000010101011100001011000101101010001011001011101010110011011100000010010000001011101010101000111111101010000100010110010101010000111110000001001110110101110010100111000111011111011111010000101010010100000111100010110000111010001101111101000011101000100010010010111010111101001010010111111101011010001111110011101101101000110111011011001010111011011010010011000010101100010000001110001001'
p135
sba(iAG
indviduo
p136
(dp137
g7
F10718.308711797772
sg8
S'1111111010000110010111100110011111001100000101111100010011101101101010001011001010101010110101011000001010100000100011101110101000111010000001111011010111100101010000001110001001001110110101110010100110000111011111011111010000100010010100001111100010110010110010101101111101110010101000100011010010110010111110101011011111111101011010101111110011101111101010110111010111000100110011111010111010000111101100000000101110100101'
p138
sba(iAG
indviduo
p139
(dp140
g7
F10716.933481056976
sg8
S'1011010110001101110111010110011111011110010101001100001111001101100010001011001011111010110001011000101010000001101010101111101000011010010001111011000111101001010100001100000101101100110101110010100111000111011111011101011000101010010100000111100010110001111010101101111101010011101000100010010010111010111101001010010111111101011010001111110011101111101000110111001011001010111111011010010111000001101100110000011110001001'
p141
sba(iAG
indviduo
p142
(dp143
g7
F10714.373399196053
sg8
S'1111111010000110010111100110011111001100000101111100010011101100100010001011001001111010110011011000111010000001100011101111101000011011010001101011010111100100010010001111000001001001110101111000000110101111111111011101100100110010001011000111111010100010111000111111100000111010111000100000111011001100111100011000101110100111010100000111000111111100100000000111011011001010110011111010011011001011101100010000001110000001'
p144
sba(iAG
indviduo
p145
(dp146
g7
F10712.629463833797
sg8
S'1010110110001101011110100110011011101100010101011100001011111101101010001011001111111010110011010100000110000011100101101011101010011111010001011011110111100101010000001110010010101111110101111110110111000101011111111111110000101010010000001111000110110000110001111111111101100010110000100001111011010001110100101011001111111101011010001111110011101111101000110111011111001010111010001011010010000011101100010000001110001001'
p147
sba(iAG
indviduo
p148
(dp149
g7
F10711.456057576861
sg8
S'1011110110001101011110110110011011101101010101001100001011110101101010001011001011111010110011010100000110000100001100101110101000100010101010000110010111000101010000001110001011000111111001111111000110000110011111011111010001101010010100001111100010110000111100111111100000011011111000100000011011001100111100011000101111111101011010011111010011101111101000111111111011001010110011101010010011001001101100010000111110001001'
p150
sba(iAG
indviduo
p151
(dp152
g7
F10708.574026330489
sg8
S'1111011111001111010110100010011111001100000101111101011011111100100010101011001011111010110011011000010010000001100011101111101001011011010001111011010111100101010000001110001011000111111001111111000110000111011111011111000000001100001100100001101011110001110111111101111101010011101000100011010011000010111110101011011110100111010001011111100011111100100100000111111111000000110011111010011011001011101100010010001011001001'
p153
sba(iAG
indviduo
p154
(dp155
g7
F10708.536560585671
sg8
S'1111111111000110010111100110011111001100000101111100010011101101101010001001001010111010110101011000001010100000100011101110101000111011000001101011100111000100010010001110000001001001110101111000000110101011111111011101100100110010001011000111111010100010111000111111100000111010111000100001101011011100111100011000101110100111011100000111000111111100101000110111011011001010110011011010010011001010101100010000001010000001'
p156
sbasS'metodo_de_selecao'
p157
I0
sS'taxa_de_reproducao'
p158
F0.95
sS'taxa_de_mutacao'
p159
F0.02
sS'numero_genes_por_cromossomo'
p160
I8
sS'tamanho'
p161
I50
sS'numero_de_cromossomos'
p162
I53
sS'funcao_aptidao'
p163
c__main__
valor
p164
sb.